target datalayout = "e-m:e-p270:32:32-p271:32:32-p272:64:64-i64:64-i128:128-f80:128-n8:16:32:64-S128"
target triple = "x86_64-pc-linux-gnu"

%struct.RelOptInfo = type { i32, i32, ptr, double, i8, i8, i8, ptr, ptr, ptr, ptr, ptr, ptr, ptr, ptr, ptr, ptr, i32, i32, i32, i16, i16, ptr, ptr, ptr, ptr, ptr, ptr, ptr, ptr, i32, double, double, ptr, ptr, ptr, i32, i32, i32, i32, i8, ptr, ptr, ptr, ptr, ptr, %struct.QualCost, i32, ptr, i8, i8, ptr, ptr, ptr, ptr, i32, ptr, i8, ptr, ptr, ptr, ptr, ptr, ptr }
%struct.QualCost = type { double, double }

; Function Attrs: nounwind uwtable
define dso_local void @remove_join_clause_from_rels(ptr noundef %0, ptr noundef %1, ptr noundef %2) #0 {
  %4 = alloca ptr, align 8
  %5 = alloca ptr, align 8
  %6 = alloca ptr, align 8
  %7 = alloca i32, align 4
  %8 = alloca ptr, align 8
  %9 = alloca i32, align 4
  store ptr %0, ptr %4, align 8
  store ptr %1, ptr %5, align 8
  store ptr %2, ptr %6, align 8
  call void @llvm.lifetime.start.p0(i64 4, ptr %7) #5
  store i32 -1, ptr %7, align 4
  br label %10

10:                                               ; preds = %32, %30, %3
  %11 = load ptr, ptr %6, align 8
  %12 = load i32, ptr %7, align 4
  %13 = call i32 @bms_next_member(ptr noundef %11, i32 noundef %12)
  store i32 %13, ptr %7, align 4
  %14 = icmp sge i32 %13, 0
  br i1 %14, label %15, label %33

15:                                               ; preds = %10
  call void @llvm.lifetime.start.p0(i64 8, ptr %8) #5
  %16 = load ptr, ptr %4, align 8
  %17 = load i32, ptr %7, align 4
  %18 = call ptr @find_base_rel_ignore_join(ptr noundef %16, i32 noundef %17)
  store ptr %18, ptr %8, align 8
  %19 = load ptr, ptr %8, align 8
  %20 = icmp eq ptr %19, null
  br i1 %20, label %21, label %22

21:                                               ; preds = %15
  store i32 2, ptr %9, align 4
  br label %30, !llvm.loop !9

22:                                               ; preds = %15
  %23 = load ptr, ptr %8, align 8
  %24 = getelementptr inbounds nuw %struct.RelOptInfo, ptr %23, i32 0, i32 48
  %25 = load ptr, ptr %24, align 8
  %26 = load ptr, ptr %5, align 8
  %27 = call ptr @list_delete_ptr(ptr noundef %25, ptr noundef %26)
  %28 = load ptr, ptr %8, align 8
  %29 = getelementptr inbounds nuw %struct.RelOptInfo, ptr %28, i32 0, i32 48
  store ptr %27, ptr %29, align 8
  store i32 0, ptr %9, align 4
  br label %30

30:                                               ; preds = %22, %21
  call void @llvm.lifetime.end.p0(i64 8, ptr %8) #5
  %31 = load i32, ptr %9, align 4
  switch i32 %31, label %34 [
    i32 0, label %32
    i32 2, label %10
  ]

32:                                               ; preds = %30
  br label %10, !llvm.loop !9

33:                                               ; preds = %10
  call void @llvm.lifetime.end.p0(i64 4, ptr %7) #5
  ret void

34:                                               ; preds = %30
  unreachable
}