; Function Attrs: nounwind uwtable
define dso_local void @remove_join_clause_from_rels(ptr noundef %0, ptr noundef %1, ptr noundef %2) local_unnamed_addr #0 {
  %4 = tail call i32 @bms_next_member(ptr noundef %2, i32 noundef -1) #2
  %5 = icmp sgt i32 %4, -1
  br i1 %5, label %.lr.ph, label %._crit_edge

.lr.ph:                                           ; preds = %3, %13
  %6 = phi i32 [ %14, %13 ], [ %4, %3 ]
  %7 = tail call ptr @find_base_rel_ignore_join(ptr noundef %0, i32 noundef %6) #2
  %8 = icmp eq ptr %7, null
  br i1 %8, label %13, label %9, !llvm.loop !8

9:                                                ; preds = %.lr.ph
  %10 = getelementptr inbounds nuw i8, ptr %7, i64 328
  %11 = load ptr, ptr %10, align 8
  %12 = tail call ptr @list_delete_ptr(ptr noundef %11, ptr noundef %1) #2
  store ptr %12, ptr %10, align 8
  br label %13

13:                                               ; preds = %.lr.ph, %9
  %14 = tail call i32 @bms_next_member(ptr noundef %2, i32 noundef %6) #2
  %15 = icmp sgt i32 %14, -1
  br i1 %15, label %.lr.ph, label %._crit_edge

._crit_edge:                                      ; preds = %13, %3
  ret void
}